target datalayout = "e-m:e-p270:32:32-p271:32:32-p272:64:64-i64:64-i128:128-f80:128-n8:16:32:64-S128"
target triple = "x86_64-pc-linux-gnu"

%struct.strbuf = type { i64, i64, ptr }
%struct.all_refs_cb = type { i32, i32, ptr, ptr, ptr }

@the_repository = external global ptr, align 8
@__const.handle_one_reflog.refname = private unnamed_addr constant %struct.strbuf { i64 0, i64 0, ptr @strbuf_slopbuf }, align 8

; Function Attrs: nounwind uwtable
define internal i32 @handle_one_reflog(ptr noundef %0, ptr noundef %1) #0 {
  %3 = alloca ptr, align 8
  %4 = alloca ptr, align 8
  %5 = alloca ptr, align 8
  %6 = alloca %struct.strbuf, align 8
  store ptr %0, ptr %3, align 8, !tbaa !39
  store ptr %1, ptr %4, align 8, !tbaa !21
  call void @llvm.lifetime.start.p0(i64 8, ptr %5) #12
  %7 = load ptr, ptr %4, align 8, !tbaa !21
  store ptr %7, ptr %5, align 8, !tbaa !164
  call void @llvm.lifetime.start.p0(i64 24, ptr %6) #12
  call void @llvm.memcpy.p0.p0.i64(ptr align 8 %6, ptr align 8 @__const.handle_one_reflog.refname, i64 24, i1 false)
  %8 = load ptr, ptr %5, align 8, !tbaa !164
  %9 = getelementptr inbounds nuw %struct.all_refs_cb, ptr %8, i32 0, i32 1
  store i32 0, ptr %9, align 4, !tbaa !166
  %10 = load ptr, ptr %5, align 8, !tbaa !164
  %11 = getelementptr inbounds nuw %struct.all_refs_cb, ptr %10, i32 0, i32 4
  %12 = load ptr, ptr %11, align 8, !tbaa !163
  %13 = load ptr, ptr %3, align 8, !tbaa !39
  call void @strbuf_worktree_ref(ptr noundef %12, ptr noundef %6, ptr noundef %13)
  %14 = getelementptr inbounds nuw %struct.strbuf, ptr %6, i32 0, i32 2
  %15 = load ptr, ptr %14, align 8, !tbaa !167
  %16 = load ptr, ptr %5, align 8, !tbaa !164
  %17 = getelementptr inbounds nuw %struct.all_refs_cb, ptr %16, i32 0, i32 3
  store ptr %15, ptr %17, align 8, !tbaa !168
  %18 = load ptr, ptr @the_repository, align 8, !tbaa !43
  %19 = call ptr @get_main_ref_store(ptr noundef %18)
  %20 = getelementptr inbounds nuw %struct.strbuf, ptr %6, i32 0, i32 2
  %21 = load ptr, ptr %20, align 8, !tbaa !167
  %22 = load ptr, ptr %4, align 8, !tbaa !21
  %23 = call i32 @refs_for_each_reflog_ent(ptr noundef %19, ptr noundef %21, ptr noundef @handle_one_reflog_ent, ptr noundef %22)
  call void @strbuf_release(ptr noundef %6)
  call void @llvm.lifetime.end.p0(i64 24, ptr %6) #12
  call void @llvm.lifetime.end.p0(i64 8, ptr %5) #12
  ret i32 0
}