; Function Attrs: nounwind uwtable
define internal noundef i32 @handle_one_reflog(ptr noundef %0, ptr noundef initializes((4, 8), (16, 24)) %1) #2 {
  %3 = alloca %struct.strbuf, align 8
  call void @llvm.lifetime.start.p0(i64 24, ptr nonnull %3) #26
  call void @llvm.memcpy.p0.p0.i64(ptr noundef nonnull align 8 dereferenceable(24) %3, ptr noundef nonnull align 8 dereferenceable(24) @__const.commit_match.buf, i64 24, i1 false)
  %4 = getelementptr inbounds nuw i8, ptr %1, i64 4
  store i32 0, ptr %4, align 4, !tbaa !133
  %5 = getelementptr inbounds nuw i8, ptr %1, i64 24
  %6 = load ptr, ptr %5, align 8, !tbaa !128
  call void @strbuf_worktree_ref(ptr noundef %6, ptr noundef nonnull %3, ptr noundef %0) #26
  %7 = getelementptr inbounds nuw i8, ptr %3, i64 16
  %8 = load ptr, ptr %7, align 8, !tbaa !134
  %9 = getelementptr inbounds nuw i8, ptr %1, i64 16
  store ptr %8, ptr %9, align 8, !tbaa !135
  %10 = load ptr, ptr @the_repository, align 8, !tbaa !71
  %11 = call ptr @get_main_ref_store(ptr noundef %10) #26
  %12 = load ptr, ptr %7, align 8, !tbaa !134
  %13 = call i32 @refs_for_each_reflog_ent(ptr noundef %11, ptr noundef %12, ptr noundef nonnull @handle_one_reflog_ent, ptr noundef %1) #26
  call void @strbuf_release(ptr noundef nonnull %3) #26
  call void @llvm.lifetime.end.p0(i64 24, ptr nonnull %3) #26
  ret i32 0
}